target datalayout = "e-m:e-p270:32:32-p271:32:32-p272:64:64-i64:64-i128:128-f80:128-n8:16:32:64-S128"
target triple = "x86_64-pc-linux-gnu"

%struct.portalhashent = type { [64 x i8], ptr }

@PortalHashTable = internal global ptr null, align 8

; Function Attrs: nounwind uwtable
define dso_local ptr @GetPortalByName(ptr noundef %0) #0 {
  %2 = alloca ptr, align 8
  %3 = alloca ptr, align 8
  %4 = alloca ptr, align 8
  store ptr %0, ptr %2, align 8
  call void @llvm.lifetime.start.p0(i64 8, ptr %3) #6
  %5 = load ptr, ptr %2, align 8
  %6 = icmp ne ptr %5, null
  br i1 %6, label %7, label %22

7:                                                ; preds = %1
  br label %8

8:                                                ; preds = %7
  call void @llvm.lifetime.start.p0(i64 8, ptr %4) #6
  %9 = load ptr, ptr @PortalHashTable, align 8
  %10 = load ptr, ptr %2, align 8
  %11 = call ptr @hash_search(ptr noundef %9, ptr noundef %10, i32 noundef 0, ptr noundef null)
  store ptr %11, ptr %4, align 8
  %12 = load ptr, ptr %4, align 8
  %13 = icmp ne ptr %12, null
  br i1 %13, label %14, label %18

14:                                               ; preds = %8
  %15 = load ptr, ptr %4, align 8
  %16 = getelementptr inbounds nuw %struct.portalhashent, ptr %15, i32 0, i32 1
  %17 = load ptr, ptr %16, align 8
  store ptr %17, ptr %3, align 8
  br label %19

18:                                               ; preds = %8
  store ptr null, ptr %3, align 8
  br label %19

19:                                               ; preds = %18, %14
  call void @llvm.lifetime.end.p0(i64 8, ptr %4) #6
  br label %20

20:                                               ; preds = %19
  br label %21

21:                                               ; preds = %20
  br label %23

22:                                               ; preds = %1
  store ptr null, ptr %3, align 8
  br label %23

23:                                               ; preds = %22, %21
  %24 = load ptr, ptr %3, align 8
  call void @llvm.lifetime.end.p0(i64 8, ptr %3) #6
  ret ptr %24
}