; Function Attrs: nounwind uwtable
define dso_local ptr @GetPortalByName(ptr noundef %0) local_unnamed_addr #0 {
  %.not = icmp eq ptr %0, null
  br i1 %.not, label %8, label %2

2:                                                ; preds = %1
  %3 = load ptr, ptr @PortalHashTable, align 8
  %4 = tail call ptr @hash_search(ptr noundef %3, ptr noundef nonnull %0, i32 noundef 0, ptr noundef null) #8
  %.not7 = icmp eq ptr %4, null
  br i1 %.not7, label %8, label %5

5:                                                ; preds = %2
  %6 = getelementptr inbounds nuw i8, ptr %4, i64 64
  %7 = load ptr, ptr %6, align 8
  br label %8

8:                                                ; preds = %1, %5, %2
  %.1 = phi ptr [ %7, %5 ], [ null, %2 ], [ null, %1 ]
  ret ptr %.1
}